; Function Attrs: uwtable
define hidden void @_ZTvn48_n80_NK5osgeo4proj9operation18PROJBasedOperation19_exportToPROJStringEPNS0_2io19PROJStringFormatterE(ptr noundef %0, ptr noundef %1) unnamed_addr #9 align 2 {
  %3 = getelementptr inbounds i8, ptr %0, i64 -48
  %4 = load ptr, ptr %3, align 8
  %5 = getelementptr inbounds i8, ptr %4, i64 -80
  %6 = load i64, ptr %5, align 8
  %7 = getelementptr inbounds i8, ptr %3, i64 %6
  tail call void @_ZNK5osgeo4proj9operation18PROJBasedOperation19_exportToPROJStringEPNS0_2io19PROJStringFormatterE(ptr noundef nonnull align 8 dereferenceable(65) %7, ptr noundef %1)
  ret void
}